target datalayout = "e-m:e-p270:32:32-p271:32:32-p272:64:64-i64:64-i128:128-f80:128-n8:16:32:64-S128"
target triple = "x86_64-pc-linux-gnu"

@hf_rsl_ie_id = internal global i32 0, align 4
@hf_rsl_ie_length = internal global i32 0, align 4
@hf_rsl_llsdu_ccch = internal global i32 0, align 4
@hf_rsl_llsdu_sacch = internal global i32 0, align 4
@hf_rsl_llsdu = internal global i32 0, align 4
@ett_ie_L3_inf = internal global i32 0, align 4
@gsm_a_ccch_handle = internal global ptr null, align 8
@gsm_a_dtap_handle = internal global ptr null, align 8
@gsm_a_sacch_handle = internal global ptr null, align 8
@top_tree = internal global ptr null, align 8
@.str.758 = private unnamed_addr constant [18 x i8] c"L3 Information IE\00", align 1

; Function Attrs: null_pointer_is_valid sspstrong uwtable
define internal i32 @dissect_rsl_ie_L3_inf(ptr noundef %0, ptr noundef %1, ptr noundef %2, i32 noundef %3, i1 noundef zeroext %4, i32 noundef %5) #0 {
  %7 = alloca i32, align 4
  %8 = alloca ptr, align 8
  %9 = alloca ptr, align 8
  %10 = alloca ptr, align 8
  %11 = alloca i32, align 4
  %12 = alloca i8, align 1
  %13 = alloca i32, align 4
  %14 = alloca ptr, align 8
  %15 = alloca ptr, align 8
  %16 = alloca ptr, align 8
  %17 = alloca i16, align 2
  %18 = alloca i8, align 1
  %19 = alloca i32, align 4
  store ptr %0, ptr %8, align 8
  store ptr %1, ptr %9, align 8
  store ptr %2, ptr %10, align 8
  store i32 %3, ptr %11, align 4
  %20 = zext i1 %4 to i8
  store i8 %20, ptr %12, align 1
  store i32 %5, ptr %13, align 4
  call void @llvm.lifetime.start.p0(i64 8, ptr %14) #6
  call void @llvm.lifetime.start.p0(i64 8, ptr %15) #6
  call void @llvm.lifetime.start.p0(i64 8, ptr %16) #6
  call void @llvm.lifetime.start.p0(i64 2, ptr %17) #6
  call void @llvm.lifetime.start.p0(i64 1, ptr %18) #6
  %21 = load i8, ptr %12, align 1, !range !6, !noundef !7
  %22 = trunc i8 %21 to i1
  %23 = zext i1 %22 to i32
  %24 = icmp eq i32 %23, 0
  br i1 %24, label %25, label %35

25:                                               ; preds = %6
  %26 = load ptr, ptr %8, align 8
  %27 = load i32, ptr %11, align 4
  %28 = call zeroext i8 @tvb_get_uint8(ptr noundef %26, i32 noundef %27)
  store i8 %28, ptr %18, align 1
  %29 = load i8, ptr %18, align 1
  %30 = zext i8 %29 to i32
  %31 = icmp ne i32 %30, 11
  br i1 %31, label %32, label %34

32:                                               ; preds = %25
  %33 = load i32, ptr %11, align 4
  store i32 %33, ptr %7, align 4
  store i32 1, ptr %19, align 4
  br label %128

34:                                               ; preds = %25
  br label %35

35:                                               ; preds = %34, %6
  %36 = load ptr, ptr %10, align 8
  %37 = load ptr, ptr %8, align 8
  %38 = load i32, ptr %11, align 4
  %39 = load i32, ptr @ett_ie_L3_inf, align 4
  %40 = call ptr @proto_tree_add_subtree(ptr noundef %36, ptr noundef %37, i32 noundef %38, i32 noundef 0, i32 noundef %39, ptr noundef %14, ptr noundef @.str.758)
  store ptr %40, ptr %15, align 8
  %41 = load ptr, ptr %15, align 8
  %42 = load i32, ptr @hf_rsl_ie_id, align 4
  %43 = load ptr, ptr %8, align 8
  %44 = load i32, ptr %11, align 4
  %45 = call ptr @proto_tree_add_item(ptr noundef %41, i32 noundef %42, ptr noundef %43, i32 noundef %44, i32 noundef 1, i32 noundef 0)
  %46 = load i32, ptr %11, align 4
  %47 = add i32 %46, 1
  store i32 %47, ptr %11, align 4
  %48 = load ptr, ptr %8, align 8
  %49 = load i32, ptr %11, align 4
  %50 = call zeroext i16 @tvb_get_ntohs(ptr noundef %48, i32 noundef %49)
  store i16 %50, ptr %17, align 2
  %51 = load ptr, ptr %14, align 8
  %52 = load i16, ptr %17, align 2
  %53 = zext i16 %52 to i32
  %54 = add i32 %53, 3
  call void @proto_item_set_len(ptr noundef %51, i32 noundef %54)
  %55 = load ptr, ptr %15, align 8
  %56 = load i32, ptr @hf_rsl_ie_length, align 4
  %57 = load ptr, ptr %8, align 8
  %58 = load i32, ptr %11, align 4
  %59 = call ptr @proto_tree_add_item(ptr noundef %55, i32 noundef %56, ptr noundef %57, i32 noundef %58, i32 noundef 2, i32 noundef 0)
  %60 = load i32, ptr %11, align 4
  %61 = add i32 %60, 2
  store i32 %61, ptr %11, align 4
  %62 = load i32, ptr %13, align 4
  %63 = icmp eq i32 %62, 0
  br i1 %63, label %64, label %82

64:                                               ; preds = %35
  %65 = load ptr, ptr %15, align 8
  %66 = load i32, ptr @hf_rsl_llsdu_ccch, align 4
  %67 = load ptr, ptr %8, align 8
  %68 = load i32, ptr %11, align 4
  %69 = load i16, ptr %17, align 2
  %70 = zext i16 %69 to i32
  %71 = call ptr @proto_tree_add_item(ptr noundef %65, i32 noundef %66, ptr noundef %67, i32 noundef %68, i32 noundef %70, i32 noundef 0)
  %72 = load ptr, ptr %8, align 8
  %73 = load i32, ptr %11, align 4
  %74 = load i16, ptr %17, align 2
  %75 = zext i16 %74 to i32
  %76 = call ptr @tvb_new_subset_length(ptr noundef %72, i32 noundef %73, i32 noundef %75)
  store ptr %76, ptr %16, align 8
  %77 = load ptr, ptr @gsm_a_ccch_handle, align 8
  %78 = load ptr, ptr %16, align 8
  %79 = load ptr, ptr %9, align 8
  %80 = load ptr, ptr @top_tree, align 8
  %81 = call i32 @call_dissector(ptr noundef %77, ptr noundef %78, ptr noundef %79, ptr noundef %80)
  br label %122

82:                                               ; preds = %35
  %83 = load i32, ptr %13, align 4
  %84 = icmp eq i32 %83, 1
  br i1 %84, label %85, label %103

85:                                               ; preds = %82
  %86 = load ptr, ptr %15, align 8
  %87 = load i32, ptr @hf_rsl_llsdu_sacch, align 4
  %88 = load ptr, ptr %8, align 8
  %89 = load i32, ptr %11, align 4
  %90 = load i16, ptr %17, align 2
  %91 = zext i16 %90 to i32
  %92 = call ptr @proto_tree_add_item(ptr noundef %86, i32 noundef %87, ptr noundef %88, i32 noundef %89, i32 noundef %91, i32 noundef 0)
  %93 = load ptr, ptr %8, align 8
  %94 = load i32, ptr %11, align 4
  %95 = load i16, ptr %17, align 2
  %96 = zext i16 %95 to i32
  %97 = call ptr @tvb_new_subset_length(ptr noundef %93, i32 noundef %94, i32 noundef %96)
  store ptr %97, ptr %16, align 8
  %98 = load ptr, ptr @gsm_a_sacch_handle, align 8
  %99 = load ptr, ptr %16, align 8
  %100 = load ptr, ptr %9, align 8
  %101 = load ptr, ptr @top_tree, align 8
  %102 = call i32 @call_dissector(ptr noundef %98, ptr noundef %99, ptr noundef %100, ptr noundef %101)
  br label %121

103:                                              ; preds = %82
  %104 = load ptr, ptr %15, align 8
  %105 = load i32, ptr @hf_rsl_llsdu, align 4
  %106 = load ptr, ptr %8, align 8
  %107 = load i32, ptr %11, align 4
  %108 = load i16, ptr %17, align 2
  %109 = zext i16 %108 to i32
  %110 = call ptr @proto_tree_add_item(ptr noundef %104, i32 noundef %105, ptr noundef %106, i32 noundef %107, i32 noundef %109, i32 noundef 0)
  %111 = load ptr, ptr %8, align 8
  %112 = load i32, ptr %11, align 4
  %113 = load i16, ptr %17, align 2
  %114 = zext i16 %113 to i32
  %115 = call ptr @tvb_new_subset_length(ptr noundef %111, i32 noundef %112, i32 noundef %114)
  store ptr %115, ptr %16, align 8
  %116 = load ptr, ptr @gsm_a_dtap_handle, align 8
  %117 = load ptr, ptr %16, align 8
  %118 = load ptr, ptr %9, align 8
  %119 = load ptr, ptr @top_tree, align 8
  %120 = call i32 @call_dissector(ptr noundef %116, ptr noundef %117, ptr noundef %118, ptr noundef %119)
  br label %121

121:                                              ; preds = %103, %85
  br label %122

122:                                              ; preds = %121, %64
  %123 = load i32, ptr %11, align 4
  %124 = load i16, ptr %17, align 2
  %125 = zext i16 %124 to i32
  %126 = add i32 %123, %125
  store i32 %126, ptr %11, align 4
  %127 = load i32, ptr %11, align 4
  store i32 %127, ptr %7, align 4
  store i32 1, ptr %19, align 4
  br label %128

128:                                              ; preds = %122, %32
  call void @llvm.lifetime.end.p0(i64 1, ptr %18) #6
  call void @llvm.lifetime.end.p0(i64 2, ptr %17) #6
  call void @llvm.lifetime.end.p0(i64 8, ptr %16) #6
  call void @llvm.lifetime.end.p0(i64 8, ptr %15) #6
  call void @llvm.lifetime.end.p0(i64 8, ptr %14) #6
  %129 = load i32, ptr %7, align 4
  ret i32 %129
}