; Function Attrs: null_pointer_is_valid sspstrong uwtable
define internal fastcc i32 @dissect_rsl_ie_L3_inf(ptr noundef %0, ptr noundef %1, ptr noundef %2, i32 noundef %3, i1 noundef zeroext %4, i32 noundef range(i32 0, 3) %5) unnamed_addr #0 {
  %7 = alloca ptr, align 8
  call void @llvm.lifetime.start.p0(i64 8, ptr nonnull %7) #6
  br i1 %4, label %10, label %8

8:                                                ; preds = %6
  %9 = tail call zeroext i8 @tvb_get_uint8(ptr noundef %0, i32 noundef %3)
  %.not = icmp eq i8 %9, 11
  br i1 %.not, label %10, label %33

10:                                               ; preds = %8, %6
  %11 = load i32, ptr @ett_ie_L3_inf, align 4
  %12 = call ptr @proto_tree_add_subtree(ptr noundef %2, ptr noundef %0, i32 noundef %3, i32 noundef 0, i32 noundef %11, ptr noundef nonnull %7, ptr noundef nonnull @.str.758)
  %13 = load i32, ptr @hf_rsl_ie_id, align 4
  %14 = call ptr @proto_tree_add_item(ptr noundef %12, i32 noundef %13, ptr noundef %0, i32 noundef %3, i32 noundef 1, i32 noundef 0)
  %15 = add i32 %3, 1
  %16 = call zeroext i16 @tvb_get_ntohs(ptr noundef %0, i32 noundef %15)
  %17 = load ptr, ptr %7, align 8
  %18 = zext i16 %16 to i32
  %19 = add nuw nsw i32 %18, 3
  call void @proto_item_set_len(ptr noundef %17, i32 noundef %19)
  %20 = load i32, ptr @hf_rsl_ie_length, align 4
  %21 = call ptr @proto_tree_add_item(ptr noundef %12, i32 noundef %20, ptr noundef %0, i32 noundef %15, i32 noundef 2, i32 noundef 0)
  %22 = add i32 %3, 3
  switch i32 %5, label %24 [
    i32 0, label %25
    i32 1, label %23
  ]

23:                                               ; preds = %10
  br label %25

24:                                               ; preds = %10
  br label %25

25:                                               ; preds = %10, %23, %24
  %hf_rsl_llsdu_sacch.sink = phi ptr [ @hf_rsl_llsdu_sacch, %23 ], [ @hf_rsl_llsdu, %24 ], [ @hf_rsl_llsdu_ccch, %10 ]
  %gsm_a_sacch_handle.sink = phi ptr [ @gsm_a_sacch_handle, %23 ], [ @gsm_a_dtap_handle, %24 ], [ @gsm_a_ccch_handle, %10 ]
  %26 = load i32, ptr %hf_rsl_llsdu_sacch.sink, align 4
  %27 = call ptr @proto_tree_add_item(ptr noundef %12, i32 noundef %26, ptr noundef %0, i32 noundef %22, i32 noundef %18, i32 noundef 0)
  %28 = call ptr @tvb_new_subset_length(ptr noundef %0, i32 noundef %22, i32 noundef %18)
  %29 = load ptr, ptr %gsm_a_sacch_handle.sink, align 8
  %30 = load ptr, ptr @top_tree, align 8
  %31 = call i32 @call_dissector(ptr noundef %29, ptr noundef %28, ptr noundef %1, ptr noundef %30)
  %32 = add i32 %22, %18
  br label %33

33:                                               ; preds = %8, %25
  %.0 = phi i32 [ %32, %25 ], [ %3, %8 ]
  call void @llvm.lifetime.end.p0(i64 8, ptr nonnull %7) #6
  ret i32 %.0
}